target datalayout = "e-m:e-p270:32:32-p271:32:32-p272:64:64-i64:64-i128:128-f80:128-n8:16:32:64-S128"
target triple = "x86_64-pc-linux-gnu"

%struct.cache_time = type { i32, i32 }
%struct.object_id = type { [32 x i8], i32 }
%struct.cache_entry = type { %struct.hashmap_entry, %struct.stat_data, i32, i32, i32, i32, i32, %struct.object_id, [0 x i8] }
%struct.hashmap_entry = type { ptr, i32 }
%struct.stat_data = type { %struct.cache_time, %struct.cache_time, i32, i32, i32, i32, i32 }

; Function Attrs: inlinehint nounwind uwtable
define internal ptr @mem_pool__ce_calloc(ptr noundef %0, i64 noundef %1) #3 {
  %3 = alloca ptr, align 8
  %4 = alloca i64, align 8
  %5 = alloca ptr, align 8
  store ptr %0, ptr %3, align 8, !tbaa !76
  store i64 %1, ptr %4, align 8, !tbaa !31
  call void @llvm.lifetime.start.p0(i64 8, ptr %5) #12
  %6 = load ptr, ptr %3, align 8, !tbaa !76
  %7 = load i64, ptr %4, align 8, !tbaa !31
  %8 = add i64 108, %7
  %9 = add i64 %8, 1
  %10 = call ptr @mem_pool_calloc(ptr noundef %6, i64 noundef 1, i64 noundef %9)
  store ptr %10, ptr %5, align 8, !tbaa !29
  %11 = load ptr, ptr %5, align 8, !tbaa !29
  %12 = getelementptr inbounds nuw %struct.cache_entry, ptr %11, i32 0, i32 4
  store i32 1, ptr %12, align 4, !tbaa !9
  %13 = load ptr, ptr %5, align 8, !tbaa !29
  call void @llvm.lifetime.end.p0(i64 8, ptr %5) #12
  ret ptr %13
}

; Function Attrs: nounwind uwtable
define dso_local ptr @make_empty_transient_cache_entry(i64 noundef %0, ptr noundef %1) #0 {
  %3 = alloca ptr, align 8
  %4 = alloca i64, align 8
  %5 = alloca ptr, align 8
  store i64 %0, ptr %4, align 8, !tbaa !31
  store ptr %1, ptr %5, align 8, !tbaa !76
  %6 = load ptr, ptr %5, align 8, !tbaa !76
  %7 = icmp ne ptr %6, null
  br i1 %7, label %8, label %12

8:                                                ; preds = %2
  %9 = load ptr, ptr %5, align 8, !tbaa !76
  %10 = load i64, ptr %4, align 8, !tbaa !31
  %11 = call ptr @mem_pool__ce_calloc(ptr noundef %9, i64 noundef %10)
  store ptr %11, ptr %3, align 8
  br label %17

12:                                               ; preds = %2
  %13 = load i64, ptr %4, align 8, !tbaa !31
  %14 = add i64 108, %13
  %15 = add i64 %14, 1
  %16 = call ptr @xcalloc(i64 noundef 1, i64 noundef %15)
  store ptr %16, ptr %3, align 8
  br label %17

17:                                               ; preds = %12, %8
  %18 = load ptr, ptr %3, align 8
  ret ptr %18
}