; Function Attrs: nounwind uwtable
define dso_local ptr @make_empty_transient_cache_entry(i64 noundef %0, ptr noundef %1) local_unnamed_addr #0 {
  %.not = icmp eq ptr %1, null
  %3 = add i64 %0, 109
  br i1 %.not, label %7, label %4

4:                                                ; preds = %2
  %5 = tail call ptr @mem_pool_calloc(ptr noundef nonnull %1, i64 noundef 1, i64 noundef %3) #30
  %6 = getelementptr inbounds nuw i8, ptr %5, i64 60
  store i32 1, ptr %6, align 4, !tbaa !32
  br label %9

7:                                                ; preds = %2
  %8 = tail call ptr @xcalloc(i64 noundef 1, i64 noundef %3) #30
  br label %9

9:                                                ; preds = %7, %4
  %.0 = phi ptr [ %5, %4 ], [ %8, %7 ]
  ret ptr %.0
}